; Function Attrs: uwtable
define hidden noundef zeroext i1 @_ZThn48_N7specrel6solver7visitedEP4expr(ptr noundef %0, ptr noundef %1) unnamed_addr #7 align 2 {
  %3 = getelementptr inbounds i8, ptr %0, i64 -48
  %4 = tail call noundef ptr @_ZNK3euf13th_euf_solver10expr2enodeEP4expr(ptr noundef nonnull align 8 dereferenceable(128) %3, ptr noundef %1)
  %.not.i = icmp eq ptr %4, null
  br i1 %.not.i, label %_ZN7specrel6solver7visitedEP4expr.exit, label %5

5:                                                ; preds = %2
  %6 = getelementptr inbounds i8, ptr %0, i64 -36
  %7 = load i32, ptr %6, align 4, !tbaa !396
  %8 = getelementptr inbounds nuw i8, ptr %4, i64 88
  %9 = load i32, ptr %8, align 8
  %10 = icmp ugt i32 %9, -257
  br i1 %10, label %_ZN7specrel6solver7visitedEP4expr.exit, label %.preheader.i.i.i.i

.preheader.i.i.i.i:                               ; preds = %5, %17
  %.0.i.i.i.i = phi ptr [ %19, %17 ], [ %8, %5 ]
  %11 = load i32, ptr %.0.i.i.i.i, align 8
  %12 = shl i32 %11, 24
  %13 = ashr exact i32 %12, 24
  %14 = icmp eq i32 %7, %13
  br i1 %14, label %15, label %17

15:                                               ; preds = %.preheader.i.i.i.i
  %16 = icmp ult i32 %11, -256
  br label %_ZN7specrel6solver7visitedEP4expr.exit

17:                                               ; preds = %.preheader.i.i.i.i
  %18 = getelementptr inbounds nuw i8, ptr %.0.i.i.i.i, i64 8
  %19 = load ptr, ptr %18, align 8, !tbaa !421
  %.not.i.i.i.i = icmp eq ptr %19, null
  br i1 %.not.i.i.i.i, label %_ZN7specrel6solver7visitedEP4expr.exit, label %.preheader.i.i.i.i, !llvm.loop !422

_ZN7specrel6solver7visitedEP4expr.exit:           ; preds = %17, %2, %5, %15
  %20 = phi i1 [ false, %2 ], [ false, %5 ], [ %16, %15 ], [ false, %17 ]
  ret i1 %20
}